ccopy_reg
_reconstructor
p0
(cchooseFeature
chooseFeature
p1
c__builtin__
object
p2
Ntp3
Rp4
(dp5
S'case'
p6
I00
sS'classForLeq'
p7
I1
sS'below_mean'
p8
cnumpy.core.multiarray
scalar
p9
(cnumpy
dtype
p10
(S'i8'
p11
I0
I1
tp12
Rp13
(I3
S'<'
p14
NNNI-1
I-1
I0
tp15
bS'\x00\x00\x00\x00\x00\x00\x00\x00'
p16
tp17
Rp18
sS'feature'
p19
I3
sS'chosenFeature'
p20
I0
sS'above_mean'
p21
g9
(g13
S'\x00\x00\x00\x00\x00\x00\x00\x00'
p22
tp23
Rp24
sS'type'
p25
S'chooseFeatureClf'
p26
sS'classForGreater'
p27
I1
sS'mean'
p28
F11.306556136385279
sb.